; Function Attrs: mustprogress nofree norecurse nosync nounwind willreturn memory(read, inaccessiblemem: none) uwtable
define hidden noundef zeroext i1 @_ZNK16bound_propagator14relevant_lowerEjd(ptr nocapture noundef nonnull readonly align 8 dereferenceable(280) %this, i32 noundef %x, double noundef %approx_k) local_unnamed_addr #12 align 2 {
entry:
  %m_lowers.i = getelementptr inbounds i8, ptr %this, i64 104
  %0 = load ptr, ptr %m_lowers.i, align 8
  %idxprom.i.i = zext i32 %x to i64
  %arrayidx.i.i = getelementptr inbounds ptr, ptr %0, i64 %idxprom.i.i
  %1 = load ptr, ptr %arrayidx.i.i, align 8
  %cmp.i = icmp eq ptr %1, null
  br i1 %cmp.i, label %_ZNK16bound_propagator14relevant_boundILb1EEEbjd.exit, label %if.end.i

if.end.i:                                         ; preds = %entry
  %m_uppers.i.i = getelementptr inbounds i8, ptr %this, i64 112
  %2 = load ptr, ptr %m_uppers.i.i, align 8
  %arrayidx.i6.i.i = getelementptr inbounds ptr, ptr %2, i64 %idxprom.i.i
  %3 = load ptr, ptr %arrayidx.i6.i.i, align 8
  %tobool3.i.not25.i = icmp eq ptr %3, null
  br i1 %tobool3.i.not25.i, label %if.end.i._ZNK16bound_propagator17get_interval_sizeEjRd.exit.i_crit_edge, label %if.then.i.i

if.end.i._ZNK16bound_propagator17get_interval_sizeEjRd.exit.i_crit_edge: ; preds = %if.end.i
  %m_approx_k.i.phi.trans.insert = getelementptr inbounds i8, ptr %1, i64 32
  %.pre = load double, ptr %m_approx_k.i.phi.trans.insert, align 8
  br label %_ZNK16bound_propagator17get_interval_sizeEjRd.exit.i

if.then.i.i:                                      ; preds = %if.end.i
  %m_approx_k.i.i = getelementptr inbounds i8, ptr %3, i64 32
  %4 = load double, ptr %m_approx_k.i.i, align 8
  %m_approx_k4.i.i = getelementptr inbounds i8, ptr %1, i64 32
  %5 = load double, ptr %m_approx_k4.i.i, align 8
  %sub.i.i = fsub double %4, %5
  br label %_ZNK16bound_propagator17get_interval_sizeEjRd.exit.i

_ZNK16bound_propagator17get_interval_sizeEjRd.exit.i: ; preds = %if.end.i._ZNK16bound_propagator17get_interval_sizeEjRd.exit.i_crit_edge, %if.then.i.i
  %6 = phi double [ %5, %if.then.i.i ], [ %.pre, %if.end.i._ZNK16bound_propagator17get_interval_sizeEjRd.exit.i_crit_edge ]
  %interval_size.0.i = phi double [ %sub.i.i, %if.then.i.i ], [ undef, %if.end.i._ZNK16bound_propagator17get_interval_sizeEjRd.exit.i_crit_edge ]
  %m_is_int.i.i = getelementptr inbounds i8, ptr %this, i64 88
  %7 = load ptr, ptr %m_is_int.i.i, align 8
  %arrayidx.i.i11.i = getelementptr inbounds i8, ptr %7, i64 %idxprom.i.i
  %8 = load i8, ptr %arrayidx.i.i11.i, align 1
  %cmp.i.not.i = icmp eq i8 %8, 0
  br i1 %cmp.i.not.i, label %if.then4.i, label %if.else20.i

if.then4.i:                                       ; preds = %_ZNK16bound_propagator17get_interval_sizeEjRd.exit.i
  %cmp5.i = fcmp olt double %6, 0.000000e+00
  %sub.i = fsub double %6, %6
  %storemerge.i = select i1 %cmp5.i, double %sub.i, double %6
  %m_threshold11.i = getelementptr inbounds i8, ptr %this, i64 240
  %9 = load double, ptr %m_threshold11.i, align 8
  %cmp.i12.i = fcmp olt double %storemerge.i, %interval_size.0.i
  %10 = select i1 %tobool3.i.not25.i, i1 true, i1 %cmp.i12.i
  %storemerge.sink26.i = select i1 %10, double %storemerge.i, double %interval_size.0.i
  %cmp.i15.i = fcmp olt double %storemerge.sink26.i, 1.000000e+00
  %.sroa.speculated.i = select i1 %cmp.i15.i, double 1.000000e+00, double %storemerge.sink26.i
  %mul14.i = fmul double %.sroa.speculated.i, %9
  %add.i = fadd double %6, %mul14.i
  %cmp17.i = fcmp ult double %add.i, %approx_k
  br i1 %cmp17.i, label %if.end26.i, label %_ZNK16bound_propagator14relevant_boundILb1EEEbjd.exit

if.else20.i:                                      ; preds = %_ZNK16bound_propagator17get_interval_sizeEjRd.exit.i
  %add22.i = fadd double %6, 1.000000e+00
  %cmp23.i = fcmp ogt double %add22.i, %approx_k
  br i1 %cmp23.i, label %_ZNK16bound_propagator14relevant_boundILb1EEEbjd.exit, label %if.end26.i

if.end26.i:                                       ; preds = %if.else20.i, %if.then4.i
  %m_small_interval.i = getelementptr inbounds i8, ptr %this, i64 232
  %11 = load double, ptr %m_small_interval.i, align 8
  %cmp28.i = fcmp ugt double %interval_size.0.i, %11
  %or.cond.i = select i1 %tobool3.i.not25.i, i1 true, i1 %cmp28.i
  br i1 %or.cond.i, label %if.end30.i, label %_ZNK16bound_propagator14relevant_boundILb1EEEbjd.exit

if.end30.i:                                       ; preds = %if.end26.i
  %m_lower_refinements.i = getelementptr inbounds i8, ptr %this, i64 152
  %12 = load ptr, ptr %m_lower_refinements.i, align 8
  %arrayidx.i18.i = getelementptr inbounds i32, ptr %12, i64 %idxprom.i.i
  %13 = load i32, ptr %arrayidx.i18.i, align 4
  %m_max_refinements.i = getelementptr inbounds i8, ptr %this, i64 224
  %14 = load i32, ptr %m_max_refinements.i, align 8
  %cmp32.i = icmp ult i32 %13, %14
  br label %_ZNK16bound_propagator14relevant_boundILb1EEEbjd.exit

_ZNK16bound_propagator14relevant_boundILb1EEEbjd.exit: ; preds = %entry, %if.then4.i, %if.else20.i, %if.end26.i, %if.end30.i
  %retval.0.i = phi i1 [ %cmp32.i, %if.end30.i ], [ true, %entry ], [ false, %if.then4.i ], [ false, %if.else20.i ], [ true, %if.end26.i ]
  ret i1 %retval.0.i
}